; Function Attrs: mustprogress nounwind uwtable
define hidden noundef ptr @_ZN10JNIHandles10make_localEP7oopDesc(ptr noundef %0) local_unnamed_addr #1 align 2 {
  %2 = icmp eq ptr %0, null
  br i1 %2, label %_ZN10JNIHandles10make_localEP10JavaThreadP7oopDescN17AllocFailStrategy13AllocFailEnumE.exit, label %3

3:                                                ; preds = %1
  %4 = tail call align 8 ptr @llvm.threadlocal.address.p0(ptr align 8 @_ZN6Thread12_thr_currentE)
  %5 = load ptr, ptr %4, align 8
  %6 = getelementptr inbounds i8, ptr %5, i64 1072
  %7 = load ptr, ptr %6, align 8
  %8 = tail call noundef ptr @_ZN14JNIHandleBlock15allocate_handleEP10JavaThreadP7oopDescN17AllocFailStrategy13AllocFailEnumE(ptr noundef nonnull align 8 dereferenceable(296) %7, ptr noundef nonnull %5, ptr noundef nonnull %0, i32 noundef 0)
  br label %_ZN10JNIHandles10make_localEP10JavaThreadP7oopDescN17AllocFailStrategy13AllocFailEnumE.exit

_ZN10JNIHandles10make_localEP10JavaThreadP7oopDescN17AllocFailStrategy13AllocFailEnumE.exit: ; preds = %1, %3
  %.0.i = phi ptr [ %8, %3 ], [ null, %1 ]
  ret ptr %.0.i
}